target datalayout = "e-m:e-p270:32:32-p271:32:32-p272:64:64-i64:64-i128:128-f80:128-n8:16:32:64-S128"
target triple = "x86_64-pc-linux-gnu"

%struct.mi_commit_mask_s = type { [8 x i64] }
%struct.mi_segment_s = type { %struct.mi_memid_s, i8, i8, i64, ptr, i64, %struct.mi_commit_mask_s, %struct.mi_commit_mask_s, ptr, i8, i8, i64, i64, i64, i64, ptr, ptr, i64, i64, i32, i64, i64, [513 x %struct.mi_page_s] }
%struct.mi_memid_s = type { %union.anon, i8, i8, i8, i32 }
%union.anon = type { %struct.mi_memid_os_info }
%struct.mi_memid_os_info = type { ptr, i64 }
%struct.mi_page_s = type { i32, i32, i8, i16, i16, %union.mi_page_flags_s, i8, ptr, ptr, i16, i8, i8, i64, ptr, i64, i64, ptr, ptr, [1 x ptr] }
%union.mi_page_flags_s = type { i8 }
%struct.mi_heap_area_s = type { ptr, i64, i64, i64, i64, i64, i32 }

; Function Attrs: nounwind uwtable
define internal ptr @mi_segment_slices_end(ptr noundef %0) #0 {
  %2 = alloca ptr, align 8
  store ptr %0, ptr %2, align 8, !tbaa !19
  %3 = load ptr, ptr %2, align 8, !tbaa !19
  %4 = getelementptr inbounds nuw %struct.mi_segment_s, ptr %3, i32 0, i32 22
  %5 = load ptr, ptr %2, align 8, !tbaa !19
  %6 = getelementptr inbounds nuw %struct.mi_segment_s, ptr %5, i32 0, i32 20
  %7 = load i64, ptr %6, align 8, !tbaa !114
  %8 = getelementptr inbounds nuw [513 x %struct.mi_page_s], ptr %4, i64 0, i64 %7
  ret ptr %8
}

; Function Attrs: nounwind uwtable
define internal zeroext i1 @mi_segment_visit_page(ptr noundef %0, i1 noundef zeroext %1, ptr noundef %2, ptr noundef %3) #0 {
  %5 = alloca i1, align 1
  %6 = alloca ptr, align 8
  %7 = alloca i8, align 1
  %8 = alloca ptr, align 8
  %9 = alloca ptr, align 8
  %10 = alloca %struct.mi_heap_area_s, align 8
  %11 = alloca i32, align 4
  store ptr %0, ptr %6, align 8, !tbaa !21
  %12 = zext i1 %1 to i8
  store i8 %12, ptr %7, align 1, !tbaa !31
  store ptr %2, ptr %8, align 8, !tbaa !95
  store ptr %3, ptr %9, align 8, !tbaa !95
  call void @llvm.lifetime.start.p0(i64 56, ptr %10) #8
  %13 = load ptr, ptr %6, align 8, !tbaa !21
  call void @_mi_heap_area_init(ptr noundef %10, ptr noundef %13) #9
  %14 = load ptr, ptr %8, align 8, !tbaa !95
  %15 = getelementptr inbounds nuw %struct.mi_heap_area_s, ptr %10, i32 0, i32 4
  %16 = load i64, ptr %15, align 8, !tbaa !100
  %17 = load ptr, ptr %9, align 8, !tbaa !95
  %18 = call zeroext i1 %14(ptr noundef null, ptr noundef %10, ptr noundef null, i64 noundef %16, ptr noundef %17) #9
  br i1 %18, label %20, label %19

19:                                               ; preds = %4
  store i1 false, ptr %5, align 1
  store i32 1, ptr %11, align 4
  br label %29

20:                                               ; preds = %4
  %21 = load i8, ptr %7, align 1, !tbaa !31, !range !33, !noundef !34
  %22 = trunc i8 %21 to i1
  br i1 %22, label %23, label %28

23:                                               ; preds = %20
  %24 = load ptr, ptr %6, align 8, !tbaa !21
  %25 = load ptr, ptr %8, align 8, !tbaa !95
  %26 = load ptr, ptr %9, align 8, !tbaa !95
  %27 = call zeroext i1 @_mi_heap_area_visit_blocks(ptr noundef %10, ptr noundef %24, ptr noundef %25, ptr noundef %26) #9
  store i1 %27, ptr %5, align 1
  store i32 1, ptr %11, align 4
  br label %29

28:                                               ; preds = %20
  store i1 true, ptr %5, align 1
  store i32 1, ptr %11, align 4
  br label %29

29:                                               ; preds = %28, %23, %19
  call void @llvm.lifetime.end.p0(i64 56, ptr %10) #8
  %30 = load i1, ptr %5, align 1
  ret i1 %30
}

; Function Attrs: inlinehint nounwind uwtable
define internal ptr @mi_slice_to_page(ptr noundef %0) #2 {
  %2 = alloca ptr, align 8
  store ptr %0, ptr %2, align 8, !tbaa !21
  %3 = load ptr, ptr %2, align 8, !tbaa !21
  ret ptr %3
}

; Function Attrs: nounwind uwtable
define internal zeroext i1 @mi_slice_is_used(ptr noundef %0) #0 {
  %2 = alloca ptr, align 8
  store ptr %0, ptr %2, align 8, !tbaa !21
  %3 = load ptr, ptr %2, align 8, !tbaa !21
  %4 = getelementptr inbounds nuw %struct.mi_page_s, ptr %3, i32 0, i32 12
  %5 = load i64, ptr %4, align 8, !tbaa !30
  %6 = icmp ugt i64 %5, 0
  ret i1 %6
}

; Function Attrs: nounwind uwtable
define internal ptr @mi_slices_start_iterate(ptr noundef %0, ptr noundef %1) #0 {
  %3 = alloca ptr, align 8
  %4 = alloca ptr, align 8
  %5 = alloca ptr, align 8
  store ptr %0, ptr %3, align 8, !tbaa !19
  store ptr %1, ptr %4, align 8, !tbaa !97
  call void @llvm.lifetime.start.p0(i64 8, ptr %5) #8
  %6 = load ptr, ptr %3, align 8, !tbaa !19
  %7 = getelementptr inbounds nuw %struct.mi_segment_s, ptr %6, i32 0, i32 22
  %8 = getelementptr inbounds [513 x %struct.mi_page_s], ptr %7, i64 0, i64 0
  store ptr %8, ptr %5, align 8, !tbaa !21
  %9 = load ptr, ptr %3, align 8, !tbaa !19
  %10 = call ptr @mi_segment_slices_end(ptr noundef %9) #9
  %11 = load ptr, ptr %4, align 8, !tbaa !97
  store ptr %10, ptr %11, align 8, !tbaa !21
  %12 = load ptr, ptr %5, align 8, !tbaa !21
  %13 = load ptr, ptr %5, align 8, !tbaa !21
  %14 = getelementptr inbounds nuw %struct.mi_page_s, ptr %13, i32 0, i32 0
  %15 = load i32, ptr %14, align 8, !tbaa !25
  %16 = zext i32 %15 to i64
  %17 = getelementptr inbounds nuw %struct.mi_page_s, ptr %12, i64 %16
  store ptr %17, ptr %5, align 8, !tbaa !21
  %18 = load ptr, ptr %5, align 8, !tbaa !21
  call void @llvm.lifetime.end.p0(i64 8, ptr %5) #8
  ret ptr %18
}

; Function Attrs: nounwind uwtable
define hidden zeroext i1 @_mi_segment_visit_blocks(ptr noundef %0, i32 noundef %1, i1 noundef zeroext %2, ptr noundef %3, ptr noundef %4) #0 {
  %6 = alloca i1, align 1
  %7 = alloca ptr, align 8
  %8 = alloca i32, align 4
  %9 = alloca i8, align 1
  %10 = alloca ptr, align 8
  %11 = alloca ptr, align 8
  %12 = alloca ptr, align 8
  %13 = alloca ptr, align 8
  %14 = alloca ptr, align 8
  %15 = alloca i32, align 4
  store ptr %0, ptr %7, align 8, !tbaa !19
  store i32 %1, ptr %8, align 4, !tbaa !86
  %16 = zext i1 %2 to i8
  store i8 %16, ptr %9, align 1, !tbaa !31
  store ptr %3, ptr %10, align 8, !tbaa !95
  store ptr %4, ptr %11, align 8, !tbaa !95
  call void @llvm.lifetime.start.p0(i64 8, ptr %12) #8
  call void @llvm.lifetime.start.p0(i64 8, ptr %13) #8
  %17 = load ptr, ptr %7, align 8, !tbaa !19
  %18 = call ptr @mi_slices_start_iterate(ptr noundef %17, ptr noundef %12) #9
  store ptr %18, ptr %13, align 8, !tbaa !21
  br label %19

19:                                               ; preds = %51, %5
  %20 = load ptr, ptr %13, align 8, !tbaa !21
  %21 = load ptr, ptr %12, align 8, !tbaa !21
  %22 = icmp ult ptr %20, %21
  br i1 %22, label %23, label %58

23:                                               ; preds = %19
  %24 = load ptr, ptr %13, align 8, !tbaa !21
  %25 = call zeroext i1 @mi_slice_is_used(ptr noundef %24) #9
  br i1 %25, label %26, label %51

26:                                               ; preds = %23
  call void @llvm.lifetime.start.p0(i64 8, ptr %14) #8
  %27 = load ptr, ptr %13, align 8, !tbaa !21
  %28 = call ptr @mi_slice_to_page(ptr noundef %27) #9
  store ptr %28, ptr %14, align 8, !tbaa !21
  %29 = load i32, ptr %8, align 4, !tbaa !86
  %30 = icmp slt i32 %29, 0
  br i1 %30, label %38, label %31

31:                                               ; preds = %26
  %32 = load ptr, ptr %14, align 8, !tbaa !21
  %33 = getelementptr inbounds nuw %struct.mi_page_s, ptr %32, i32 0, i32 11
  %34 = load i8, ptr %33, align 1, !tbaa !53
  %35 = zext i8 %34 to i32
  %36 = load i32, ptr %8, align 4, !tbaa !86
  %37 = icmp eq i32 %35, %36
  br i1 %37, label %38, label %47

38:                                               ; preds = %31, %26
  %39 = load ptr, ptr %14, align 8, !tbaa !21
  %40 = load i8, ptr %9, align 1, !tbaa !31, !range !33, !noundef !34
  %41 = trunc i8 %40 to i1
  %42 = load ptr, ptr %10, align 8, !tbaa !95
  %43 = load ptr, ptr %11, align 8, !tbaa !95
  %44 = call zeroext i1 @mi_segment_visit_page(ptr noundef %39, i1 noundef zeroext %41, ptr noundef %42, ptr noundef %43) #9
  br i1 %44, label %46, label %45

45:                                               ; preds = %38
  store i1 false, ptr %6, align 1
  store i32 1, ptr %15, align 4
  br label %48

46:                                               ; preds = %38
  br label %47

47:                                               ; preds = %46, %31
  store i32 0, ptr %15, align 4
  br label %48

48:                                               ; preds = %47, %45
  call void @llvm.lifetime.end.p0(i64 8, ptr %14) #8
  %49 = load i32, ptr %15, align 4
  switch i32 %49, label %59 [
    i32 0, label %50
  ]

50:                                               ; preds = %48
  br label %51

51:                                               ; preds = %50, %23
  %52 = load ptr, ptr %13, align 8, !tbaa !21
  %53 = load ptr, ptr %13, align 8, !tbaa !21
  %54 = getelementptr inbounds nuw %struct.mi_page_s, ptr %53, i32 0, i32 0
  %55 = load i32, ptr %54, align 8, !tbaa !25
  %56 = zext i32 %55 to i64
  %57 = getelementptr inbounds nuw %struct.mi_page_s, ptr %52, i64 %56
  store ptr %57, ptr %13, align 8, !tbaa !21
  br label %19, !llvm.loop !96

58:                                               ; preds = %19
  store i1 true, ptr %6, align 1
  store i32 1, ptr %15, align 4
  br label %59

59:                                               ; preds = %58, %48
  call void @llvm.lifetime.end.p0(i64 8, ptr %13) #8
  call void @llvm.lifetime.end.p0(i64 8, ptr %12) #8
  %60 = load i1, ptr %6, align 1
  ret i1 %60
}