; Function Attrs: nounwind uwtable
define hidden noundef zeroext i1 @_mi_segment_visit_blocks(ptr noundef %0, i32 noundef %1, i1 noundef zeroext %2, ptr noundef %3, ptr noundef %4) local_unnamed_addr #4 {
  %6 = alloca %struct.mi_heap_area_s, align 8
  %7 = getelementptr inbounds nuw i8, ptr %0, i64 288
  %8 = getelementptr inbounds nuw i8, ptr %0, i64 272
  %9 = load i64, ptr %8, align 8, !tbaa !46
  %.idx34 = mul nuw nsw i64 %9, 96
  %10 = getelementptr inbounds nuw i8, ptr %7, i64 %.idx34
  %11 = load i32, ptr %7, align 8, !tbaa !22
  %12 = zext i32 %11 to i64
  %.idx = mul nuw nsw i64 %12, 96
  %13 = getelementptr inbounds nuw i8, ptr %7, i64 %.idx
  %.not35 = icmp ugt i64 %9, %12
  br i1 %.not35, label %.lr.ph, label %._crit_edge

.lr.ph:                                           ; preds = %5
  %14 = icmp slt i32 %1, 0
  %15 = getelementptr inbounds nuw i8, ptr %6, i64 32
  br i1 %2, label %.lr.ph.split, label %.lr.ph.split.us

.lr.ph.split.us:                                  ; preds = %.lr.ph
  br i1 %14, label %.lr.ph.split.us.split.us, label %.lr.ph.split.us.split

.lr.ph.split.us.split.us:                         ; preds = %.lr.ph.split.us, %.critedge.us.us
  %.01517.us.us = phi ptr [ %21, %.critedge.us.us ], [ %13, %.lr.ph.split.us ]
  %16 = getelementptr i8, ptr %.01517.us.us, i64 40
  %.015.val.us.us = load i64, ptr %16, align 8, !tbaa !14
  %.not.us.us = icmp eq i64 %.015.val.us.us, 0
  br i1 %.not.us.us, label %.critedge.us.us, label %mi_segment_visit_page.exit.us.us

mi_segment_visit_page.exit.us.us:                 ; preds = %.lr.ph.split.us.split.us
  call void @llvm.lifetime.start.p0(i64 56, ptr nonnull %6) #12
  call void @_mi_heap_area_init(ptr noundef nonnull %6, ptr noundef nonnull %.01517.us.us) #11
  %17 = load i64, ptr %15, align 8, !tbaa !98
  %18 = call zeroext i1 %3(ptr noundef null, ptr noundef nonnull %6, ptr noundef null, i64 noundef %17, ptr noundef %4) #11
  call void @llvm.lifetime.end.p0(i64 56, ptr nonnull %6) #12
  br i1 %18, label %.critedge.us.us, label %._crit_edge

.critedge.us.us:                                  ; preds = %mi_segment_visit_page.exit.us.us, %.lr.ph.split.us.split.us
  %19 = load i32, ptr %.01517.us.us, align 8, !tbaa !22
  %20 = zext i32 %19 to i64
  %21 = getelementptr inbounds nuw %struct.mi_page_s, ptr %.01517.us.us, i64 %20
  %.not37 = icmp ult ptr %21, %10
  br i1 %.not37, label %.lr.ph.split.us.split.us, label %._crit_edge, !llvm.loop !100

.lr.ph.split.us.split:                            ; preds = %.lr.ph.split.us, %.critedge.us
  %.01517.us = phi ptr [ %32, %.critedge.us ], [ %13, %.lr.ph.split.us ]
  %22 = getelementptr i8, ptr %.01517.us, i64 40
  %.015.val.us = load i64, ptr %22, align 8, !tbaa !14
  %.not.us = icmp eq i64 %.015.val.us, 0
  br i1 %.not.us, label %.critedge.us, label %23

23:                                               ; preds = %.lr.ph.split.us.split
  %24 = getelementptr inbounds nuw i8, ptr %.01517.us, i64 35
  %25 = load i8, ptr %24, align 1, !tbaa !44
  %26 = zext i8 %25 to i32
  %27 = icmp eq i32 %1, %26
  br i1 %27, label %mi_segment_visit_page.exit.us, label %.critedge.us

mi_segment_visit_page.exit.us:                    ; preds = %23
  call void @llvm.lifetime.start.p0(i64 56, ptr nonnull %6) #12
  call void @_mi_heap_area_init(ptr noundef nonnull %6, ptr noundef nonnull %.01517.us) #11
  %28 = load i64, ptr %15, align 8, !tbaa !98
  %29 = call zeroext i1 %3(ptr noundef null, ptr noundef nonnull %6, ptr noundef null, i64 noundef %28, ptr noundef %4) #11
  call void @llvm.lifetime.end.p0(i64 56, ptr nonnull %6) #12
  br i1 %29, label %.critedge.us, label %._crit_edge

.critedge.us:                                     ; preds = %mi_segment_visit_page.exit.us, %23, %.lr.ph.split.us.split
  %30 = load i32, ptr %.01517.us, align 8, !tbaa !22
  %31 = zext i32 %30 to i64
  %32 = getelementptr inbounds nuw %struct.mi_page_s, ptr %.01517.us, i64 %31
  %.not36 = icmp ult ptr %32, %10
  br i1 %.not36, label %.lr.ph.split.us.split, label %._crit_edge, !llvm.loop !100

.lr.ph.split:                                     ; preds = %.lr.ph
  br i1 %14, label %.lr.ph.split.split.us, label %.lr.ph.split.split

.lr.ph.split.split.us:                            ; preds = %.lr.ph.split, %.critedge.us26
  %.01517.us22 = phi ptr [ %41, %.critedge.us26 ], [ %13, %.lr.ph.split ]
  %33 = getelementptr i8, ptr %.01517.us22, i64 40
  %.015.val.us23 = load i64, ptr %33, align 8, !tbaa !14
  %.not.us24 = icmp eq i64 %.015.val.us23, 0
  br i1 %.not.us24, label %.critedge.us26, label %34

34:                                               ; preds = %.lr.ph.split.split.us
  call void @llvm.lifetime.start.p0(i64 56, ptr nonnull %6) #12
  call void @_mi_heap_area_init(ptr noundef nonnull %6, ptr noundef nonnull %.01517.us22) #11
  %35 = load i64, ptr %15, align 8, !tbaa !98
  %36 = call zeroext i1 %3(ptr noundef null, ptr noundef nonnull %6, ptr noundef null, i64 noundef %35, ptr noundef %4) #11
  br i1 %36, label %37, label %._crit_edge.sink.split

37:                                               ; preds = %34
  %38 = call zeroext i1 @_mi_heap_area_visit_blocks(ptr noundef nonnull %6, ptr noundef nonnull %.01517.us22, ptr noundef %3, ptr noundef %4) #11
  call void @llvm.lifetime.end.p0(i64 56, ptr nonnull %6) #12
  br i1 %38, label %.critedge.us26, label %._crit_edge

.critedge.us26:                                   ; preds = %37, %.lr.ph.split.split.us
  %39 = load i32, ptr %.01517.us22, align 8, !tbaa !22
  %40 = zext i32 %39 to i64
  %41 = getelementptr inbounds nuw %struct.mi_page_s, ptr %.01517.us22, i64 %40
  %.not39 = icmp ult ptr %41, %10
  br i1 %.not39, label %.lr.ph.split.split.us, label %._crit_edge, !llvm.loop !100

.lr.ph.split.split:                               ; preds = %.lr.ph.split, %.critedge
  %.01517 = phi ptr [ %55, %.critedge ], [ %13, %.lr.ph.split ]
  %42 = getelementptr i8, ptr %.01517, i64 40
  %.015.val = load i64, ptr %42, align 8, !tbaa !14
  %.not = icmp eq i64 %.015.val, 0
  br i1 %.not, label %.critedge, label %43

43:                                               ; preds = %.lr.ph.split.split
  %44 = getelementptr inbounds nuw i8, ptr %.01517, i64 35
  %45 = load i8, ptr %44, align 1, !tbaa !44
  %46 = zext i8 %45 to i32
  %47 = icmp eq i32 %1, %46
  br i1 %47, label %48, label %.critedge

48:                                               ; preds = %43
  call void @llvm.lifetime.start.p0(i64 56, ptr nonnull %6) #12
  call void @_mi_heap_area_init(ptr noundef nonnull %6, ptr noundef nonnull %.01517) #11
  %49 = load i64, ptr %15, align 8, !tbaa !98
  %50 = call zeroext i1 %3(ptr noundef null, ptr noundef nonnull %6, ptr noundef null, i64 noundef %49, ptr noundef %4) #11
  br i1 %50, label %51, label %._crit_edge.sink.split

51:                                               ; preds = %48
  %52 = call zeroext i1 @_mi_heap_area_visit_blocks(ptr noundef nonnull %6, ptr noundef nonnull %.01517, ptr noundef %3, ptr noundef %4) #11
  call void @llvm.lifetime.end.p0(i64 56, ptr nonnull %6) #12
  br i1 %52, label %.critedge, label %._crit_edge

.critedge:                                        ; preds = %51, %43, %.lr.ph.split.split
  %53 = load i32, ptr %.01517, align 8, !tbaa !22
  %54 = zext i32 %53 to i64
  %55 = getelementptr inbounds nuw %struct.mi_page_s, ptr %.01517, i64 %54
  %.not38 = icmp ult ptr %55, %10
  br i1 %.not38, label %.lr.ph.split.split, label %._crit_edge, !llvm.loop !100

._crit_edge.sink.split:                           ; preds = %48, %34
  call void @llvm.lifetime.end.p0(i64 56, ptr nonnull %6) #12
  br label %._crit_edge

._crit_edge:                                      ; preds = %mi_segment_visit_page.exit.us, %.critedge.us, %mi_segment_visit_page.exit.us.us, %.critedge.us.us, %.critedge, %51, %.critedge.us26, %37, %._crit_edge.sink.split, %5
  %.lcssa = phi i1 [ true, %5 ], [ false, %._crit_edge.sink.split ], [ false, %37 ], [ true, %.critedge.us26 ], [ false, %51 ], [ true, %.critedge ], [ true, %.critedge.us.us ], [ false, %mi_segment_visit_page.exit.us.us ], [ true, %.critedge.us ], [ false, %mi_segment_visit_page.exit.us ]
  ret i1 %.lcssa
}